target datalayout = "e-m:e-p270:32:32-p271:32:32-p272:64:64-i64:64-i128:128-f80:128-n8:16:32:64-S128"
target triple = "x86_64-pc-linux-gnu"

%class.btVector3 = type { [4 x float] }
%class.btDynamicsWorld = type { %class.btCollisionWorld.base, ptr, ptr, ptr, %struct.btContactSolverInfo }
%class.btCollisionWorld.base = type <{ ptr, %class.btAlignedObjectArray.4, ptr, %struct.btDispatcherInfo, ptr, ptr, i8 }>
%class.btAlignedObjectArray.4 = type <{ [4 x i8], i32, i32, [4 x i8], ptr, i8, [7 x i8] }>
%struct.btDispatcherInfo = type <{ float, i32, i32, float, i8, [7 x i8], ptr, i8, i8, i8, i8, float, i8, [3 x i8], float, i8, [7 x i8] }>
%struct.btContactSolverInfo = type { %struct.btContactSolverInfoData }
%struct.btContactSolverInfoData = type { float, float, float, float, float, i32, float, float, float, float, float, float, float, float, float, float, i32, float, float, float, float, float, i32, i32, i32, float, float, float, float, i8, i8, i32, i32 }
%class.btAlignedObjectArray.6 = type <{ [4 x i8], i32, i32, [4 x i8], ptr, i8, [7 x i8] }>
%class.btAlignedObjectArray.8 = type <{ [4 x i8], i32, i32, [4 x i8], ptr, i8, [7 x i8] }>
%class.btAlignedObjectArray.10 = type <{ [4 x i8], i32, i32, [4 x i8], ptr, i8, [7 x i8] }>
%class.btAlignedObjectArray.12 = type <{ [4 x i8], i32, i32, [4 x i8], ptr, i8, [7 x i8] }>
%class.btSpinMutex = type { i32 }
%class.btDiscreteDynamicsWorld = type <{ %class.btDynamicsWorld, %class.btAlignedObjectArray.6, ptr, ptr, ptr, %class.btAlignedObjectArray.6, %class.btAlignedObjectArray.8, %class.btVector3, float, float, i8, i8, i8, i8, [4 x i8], %class.btAlignedObjectArray.10, i32, i8, [3 x i8], %class.btAlignedObjectArray.12, %class.btSpinMutex, [4 x i8] }>

@gDisableDeactivation = external global i8, align 1

; Function Attrs: inlinehint mustprogress nounwind uwtable
define linkonce_odr dso_local noundef float @_Z6btFabsf(float noundef %0) #6 comdat {
  %2 = alloca float, align 4
  store float %0, ptr %2, align 4, !tbaa !12
  %3 = load float, ptr %2, align 4, !tbaa !12
  %4 = call float @llvm.fabs.f32(float %3)
  ret float %4
}

; Function Attrs: inlinehint mustprogress uwtable
define linkonce_odr dso_local noundef zeroext i1 @_Z11btFuzzyZerof(float noundef %0) #8 comdat {
  %2 = alloca float, align 4
  store float %0, ptr %2, align 4, !tbaa !12
  %3 = load float, ptr %2, align 4, !tbaa !12
  %4 = call noundef float @_Z6btFabsf(float noundef %3)
  %5 = fcmp olt float %4, 0x3E80000000000000
  ret i1 %5
}

; Function Attrs: mustprogress uwtable
define dso_local noundef i32 @_ZN34btDeformableMultiBodyDynamicsWorld14stepSimulationEfif(ptr noundef nonnull align 8 dereferenceable(1056) %0, float noundef %1, i32 noundef %2, float noundef %3) unnamed_addr #7 align 2 {
  %5 = alloca ptr, align 8
  %6 = alloca float, align 4
  %7 = alloca i32, align 4
  %8 = alloca float, align 4
  %9 = alloca i32, align 4
  %10 = alloca ptr, align 8
  %11 = alloca i32, align 4
  %12 = alloca i32, align 4
  store ptr %0, ptr %5, align 8, !tbaa !58
  store float %1, ptr %6, align 4, !tbaa !12
  store i32 %2, ptr %7, align 4, !tbaa !9
  store float %3, ptr %8, align 4, !tbaa !12
  %13 = load ptr, ptr %5, align 8
  %14 = load float, ptr %6, align 4, !tbaa !12
  call void @_ZN23btDiscreteDynamicsWorld14startProfilingEf(ptr noundef nonnull align 8 dereferenceable(508) %13, float noundef %14)
  call void @llvm.lifetime.start.p0(i64 4, ptr %9) #4
  store i32 0, ptr %9, align 4, !tbaa !9
  %15 = load i32, ptr %7, align 4, !tbaa !9
  %16 = icmp ne i32 %15, 0
  br i1 %16, label %17, label %42

17:                                               ; preds = %4
  %18 = load float, ptr %8, align 4, !tbaa !12
  %19 = getelementptr inbounds nuw %class.btDiscreteDynamicsWorld, ptr %13, i32 0, i32 9
  store float %18, ptr %19, align 4, !tbaa !489
  %20 = load float, ptr %6, align 4, !tbaa !12
  %21 = getelementptr inbounds nuw %class.btDiscreteDynamicsWorld, ptr %13, i32 0, i32 8
  %22 = load float, ptr %21, align 8, !tbaa !490
  %23 = fadd float %22, %20
  store float %23, ptr %21, align 8, !tbaa !490
  %24 = getelementptr inbounds nuw %class.btDiscreteDynamicsWorld, ptr %13, i32 0, i32 8
  %25 = load float, ptr %24, align 8, !tbaa !490
  %26 = load float, ptr %8, align 4, !tbaa !12
  %27 = fcmp oge float %25, %26
  br i1 %27, label %28, label %41

28:                                               ; preds = %17
  %29 = getelementptr inbounds nuw %class.btDiscreteDynamicsWorld, ptr %13, i32 0, i32 8
  %30 = load float, ptr %29, align 8, !tbaa !490
  %31 = load float, ptr %8, align 4, !tbaa !12
  %32 = fdiv float %30, %31
  %33 = fptosi float %32 to i32
  store i32 %33, ptr %9, align 4, !tbaa !9
  %34 = load i32, ptr %9, align 4, !tbaa !9
  %35 = sitofp i32 %34 to float
  %36 = load float, ptr %8, align 4, !tbaa !12
  %37 = getelementptr inbounds nuw %class.btDiscreteDynamicsWorld, ptr %13, i32 0, i32 8
  %38 = load float, ptr %37, align 8, !tbaa !490
  %39 = fneg float %35
  %40 = call float @llvm.fmuladd.f32(float %39, float %36, float %38)
  store float %40, ptr %37, align 8, !tbaa !490
  br label %41

41:                                               ; preds = %28, %17
  br label %59

42:                                               ; preds = %4
  %43 = load float, ptr %6, align 4, !tbaa !12
  store float %43, ptr %8, align 4, !tbaa !12
  %44 = getelementptr inbounds nuw %class.btDiscreteDynamicsWorld, ptr %13, i32 0, i32 17
  %45 = load i8, ptr %44, align 4, !tbaa !491, !range !178, !noundef !179
  %46 = trunc i8 %45 to i1
  br i1 %46, label %47, label %48

47:                                               ; preds = %42
  br label %50

48:                                               ; preds = %42
  %49 = load float, ptr %6, align 4, !tbaa !12
  br label %50

50:                                               ; preds = %48, %47
  %51 = phi float [ 0.000000e+00, %47 ], [ %49, %48 ]
  %52 = getelementptr inbounds nuw %class.btDiscreteDynamicsWorld, ptr %13, i32 0, i32 8
  store float %51, ptr %52, align 8, !tbaa !490
  %53 = getelementptr inbounds nuw %class.btDiscreteDynamicsWorld, ptr %13, i32 0, i32 9
  store float 0.000000e+00, ptr %53, align 4, !tbaa !489
  %54 = load float, ptr %6, align 4, !tbaa !12
  %55 = call noundef zeroext i1 @_Z11btFuzzyZerof(float noundef %54)
  br i1 %55, label %56, label %57

56:                                               ; preds = %50
  store i32 0, ptr %9, align 4, !tbaa !9
  store i32 0, ptr %7, align 4, !tbaa !9
  br label %58

57:                                               ; preds = %50
  store i32 1, ptr %9, align 4, !tbaa !9
  store i32 1, ptr %7, align 4, !tbaa !9
  br label %58

58:                                               ; preds = %57, %56
  br label %59

59:                                               ; preds = %58, %41
  %60 = load ptr, ptr %13, align 8, !tbaa !51
  %61 = getelementptr inbounds ptr, ptr %60, i64 5
  %62 = load ptr, ptr %61, align 8
  %63 = call noundef ptr %62(ptr noundef nonnull align 8 dereferenceable(121) %13)
  %64 = icmp ne ptr %63, null
  br i1 %64, label %65, label %78

65:                                               ; preds = %59
  call void @llvm.lifetime.start.p0(i64 8, ptr %10) #4
  %66 = load ptr, ptr %13, align 8, !tbaa !51
  %67 = getelementptr inbounds ptr, ptr %66, i64 5
  %68 = load ptr, ptr %67, align 8
  %69 = call noundef ptr %68(ptr noundef nonnull align 8 dereferenceable(121) %13)
  store ptr %69, ptr %10, align 8, !tbaa !492
  %70 = load ptr, ptr %10, align 8, !tbaa !492
  %71 = load ptr, ptr %70, align 8, !tbaa !51
  %72 = getelementptr inbounds ptr, ptr %71, i64 14
  %73 = load ptr, ptr %72, align 8
  %74 = call noundef i32 %73(ptr noundef nonnull align 8 dereferenceable(8) %70)
  %75 = and i32 %74, 16
  %76 = icmp ne i32 %75, 0
  %77 = zext i1 %76 to i8
  store i8 %77, ptr @gDisableDeactivation, align 1, !tbaa !198
  call void @llvm.lifetime.end.p0(i64 8, ptr %10) #4
  br label %78

78:                                               ; preds = %65, %59
  %79 = load i32, ptr %9, align 4, !tbaa !9
  %80 = icmp ne i32 %79, 0
  br i1 %80, label %81, label %115

81:                                               ; preds = %78
  call void @llvm.lifetime.start.p0(i64 4, ptr %11) #4
  %82 = load i32, ptr %9, align 4, !tbaa !9
  %83 = load i32, ptr %7, align 4, !tbaa !9
  %84 = icmp sgt i32 %82, %83
  br i1 %84, label %85, label %87

85:                                               ; preds = %81
  %86 = load i32, ptr %7, align 4, !tbaa !9
  br label %89

87:                                               ; preds = %81
  %88 = load i32, ptr %9, align 4, !tbaa !9
  br label %89

89:                                               ; preds = %87, %85
  %90 = phi i32 [ %86, %85 ], [ %88, %87 ]
  store i32 %90, ptr %11, align 4, !tbaa !9
  %91 = load float, ptr %8, align 4, !tbaa !12
  %92 = load i32, ptr %11, align 4, !tbaa !9
  %93 = sitofp i32 %92 to float
  %94 = fmul float %91, %93
  %95 = load ptr, ptr %13, align 8, !tbaa !51
  %96 = getelementptr inbounds ptr, ptr %95, i64 42
  %97 = load ptr, ptr %96, align 8
  call void %97(ptr noundef nonnull align 8 dereferenceable(848) %13, float noundef %94)
  call void @llvm.lifetime.start.p0(i64 4, ptr %12) #4
  store i32 0, ptr %12, align 4, !tbaa !9
  br label %98

98:                                               ; preds = %111, %89
  %99 = load i32, ptr %12, align 4, !tbaa !9
  %100 = load i32, ptr %11, align 4, !tbaa !9
  %101 = icmp slt i32 %99, %100
  br i1 %101, label %103, label %102

102:                                              ; preds = %98
  call void @llvm.lifetime.end.p0(i64 4, ptr %12) #4
  br label %114

103:                                              ; preds = %98
  %104 = load float, ptr %8, align 4, !tbaa !12
  %105 = load ptr, ptr %13, align 8, !tbaa !51
  %106 = getelementptr inbounds ptr, ptr %105, i64 40
  %107 = load ptr, ptr %106, align 8
  call void %107(ptr noundef nonnull align 8 dereferenceable(1056) %13, float noundef %104)
  %108 = load ptr, ptr %13, align 8, !tbaa !51
  %109 = getelementptr inbounds ptr, ptr %108, i64 21
  %110 = load ptr, ptr %109, align 8
  call void %110(ptr noundef nonnull align 8 dereferenceable(508) %13)
  br label %111

111:                                              ; preds = %103
  %112 = load i32, ptr %12, align 4, !tbaa !9
  %113 = add nsw i32 %112, 1
  store i32 %113, ptr %12, align 4, !tbaa !9
  br label %98, !llvm.loop !493

114:                                              ; preds = %102
  call void @llvm.lifetime.end.p0(i64 4, ptr %11) #4
  br label %119

115:                                              ; preds = %78
  %116 = load ptr, ptr %13, align 8, !tbaa !51
  %117 = getelementptr inbounds ptr, ptr %116, i64 21
  %118 = load ptr, ptr %117, align 8
  call void %118(ptr noundef nonnull align 8 dereferenceable(508) %13)
  br label %119

119:                                              ; preds = %115, %114
  %120 = load ptr, ptr %13, align 8, !tbaa !51
  %121 = getelementptr inbounds ptr, ptr %120, i64 31
  %122 = load ptr, ptr %121, align 8
  call void %122(ptr noundef nonnull align 8 dereferenceable(848) %13)
  %123 = load i32, ptr %9, align 4, !tbaa !9
  call void @llvm.lifetime.end.p0(i64 4, ptr %9) #4
  ret i32 %123
}