; Function Attrs: mustprogress uwtable
define dso_local noundef i32 @_ZN34btDeformableMultiBodyDynamicsWorld14stepSimulationEfif(ptr noundef nonnull align 8 dereferenceable(1056) %0, float noundef %1, i32 noundef %2, float noundef %3) unnamed_addr #4 align 2 {
  tail call void @_ZN23btDiscreteDynamicsWorld14startProfilingEf(ptr noundef nonnull align 8 dereferenceable(508) %0, float noundef %1)
  %.not = icmp eq i32 %2, 0
  br i1 %.not, label %17, label %5

5:                                                ; preds = %4
  %6 = getelementptr inbounds nuw i8, ptr %0, i64 420
  store float %3, ptr %6, align 4, !tbaa !454
  %7 = getelementptr inbounds nuw i8, ptr %0, i64 416
  %8 = load float, ptr %7, align 8, !tbaa !455
  %9 = fadd float %1, %8
  store float %9, ptr %7, align 8, !tbaa !455
  %10 = fcmp ult float %9, %3
  br i1 %10, label %26, label %11

11:                                               ; preds = %5
  %12 = fdiv float %9, %3
  %13 = fptosi float %12 to i32
  %14 = sitofp i32 %13 to float
  %15 = fneg float %14
  %16 = tail call float @llvm.fmuladd.f32(float %15, float %3, float %9)
  store float %16, ptr %7, align 8, !tbaa !455
  br label %26

17:                                               ; preds = %4
  %18 = getelementptr inbounds nuw i8, ptr %0, i64 468
  %19 = load i8, ptr %18, align 4, !tbaa !456, !range !32, !noundef !33
  %20 = trunc nuw i8 %19 to i1
  %21 = select i1 %20, float 0.000000e+00, float %1
  %22 = getelementptr inbounds nuw i8, ptr %0, i64 416
  store float %21, ptr %22, align 8, !tbaa !455
  %23 = getelementptr inbounds nuw i8, ptr %0, i64 420
  store float 0.000000e+00, ptr %23, align 4, !tbaa !454
  %24 = tail call noundef float @llvm.fabs.f32(float %1)
  %25 = fcmp uge float %24, 0x3E80000000000000
  %. = zext i1 %25 to i32
  br label %26

26:                                               ; preds = %17, %5, %11
  %.026 = phi i32 [ %13, %11 ], [ 0, %5 ], [ %., %17 ]
  %.025 = phi float [ %3, %11 ], [ %3, %5 ], [ %1, %17 ]
  %.024 = phi i32 [ %2, %11 ], [ %2, %5 ], [ %., %17 ]
  %27 = load ptr, ptr %0, align 8, !tbaa !50
  %28 = getelementptr inbounds nuw i8, ptr %27, i64 40
  %29 = load ptr, ptr %28, align 8
  %30 = tail call noundef ptr %29(ptr noundef nonnull align 8 dereferenceable(121) %0)
  %.not30 = icmp eq ptr %30, null
  br i1 %.not30, label %43, label %31

31:                                               ; preds = %26
  %32 = load ptr, ptr %0, align 8, !tbaa !50
  %33 = getelementptr inbounds nuw i8, ptr %32, i64 40
  %34 = load ptr, ptr %33, align 8
  %35 = tail call noundef ptr %34(ptr noundef nonnull align 8 dereferenceable(121) %0)
  %36 = load ptr, ptr %35, align 8, !tbaa !50
  %37 = getelementptr inbounds nuw i8, ptr %36, i64 112
  %38 = load ptr, ptr %37, align 8
  %39 = tail call noundef i32 %38(ptr noundef nonnull align 8 dereferenceable(8) %35)
  %40 = trunc i32 %39 to i8
  %41 = lshr i8 %40, 4
  %42 = and i8 %41, 1
  store i8 %42, ptr @gDisableDeactivation, align 1, !tbaa !457
  br label %43

43:                                               ; preds = %31, %26
  %.not31 = icmp eq i32 %.026, 0
  br i1 %.not31, label %59, label %44

44:                                               ; preds = %43
  %45 = tail call i32 @llvm.smin.i32(i32 %.026, i32 %.024)
  %46 = sitofp i32 %45 to float
  %47 = fmul float %.025, %46
  %48 = load ptr, ptr %0, align 8, !tbaa !50
  %49 = getelementptr inbounds nuw i8, ptr %48, i64 336
  %50 = load ptr, ptr %49, align 8
  tail call void %50(ptr noundef nonnull align 8 dereferenceable(848) %0, float noundef %47)
  %51 = icmp sgt i32 %45, 0
  br i1 %51, label %.lr.ph, label %.loopexit

.lr.ph:                                           ; preds = %44, %.lr.ph
  %.032 = phi i32 [ %58, %.lr.ph ], [ 0, %44 ]
  %52 = load ptr, ptr %0, align 8, !tbaa !50
  %53 = getelementptr inbounds nuw i8, ptr %52, i64 320
  %54 = load ptr, ptr %53, align 8
  tail call void %54(ptr noundef nonnull align 8 dereferenceable(1056) %0, float noundef %.025)
  %55 = load ptr, ptr %0, align 8, !tbaa !50
  %56 = getelementptr inbounds nuw i8, ptr %55, i64 168
  %57 = load ptr, ptr %56, align 8
  tail call void %57(ptr noundef nonnull align 8 dereferenceable(508) %0)
  %58 = add nuw nsw i32 %.032, 1
  %exitcond.not = icmp eq i32 %58, %45
  br i1 %exitcond.not, label %.loopexit, label %.lr.ph, !llvm.loop !458

59:                                               ; preds = %43
  %60 = load ptr, ptr %0, align 8, !tbaa !50
  %61 = getelementptr inbounds nuw i8, ptr %60, i64 168
  %62 = load ptr, ptr %61, align 8
  tail call void %62(ptr noundef nonnull align 8 dereferenceable(508) %0)
  br label %.loopexit

.loopexit:                                        ; preds = %.lr.ph, %44, %59
  %63 = load ptr, ptr %0, align 8, !tbaa !50
  %64 = getelementptr inbounds nuw i8, ptr %63, i64 248
  %65 = load ptr, ptr %64, align 8
  tail call void %65(ptr noundef nonnull align 8 dereferenceable(848) %0)
  ret i32 %.026
}